; Function Attrs: null_pointer_is_valid sspstrong uwtable
define internal i32 @fileexp_dissect_storedata_resp(ptr noundef %0, i32 noundef %1, ptr noundef %2, ptr noundef %3, ptr noundef %4, ptr noundef %5) #0 {
  %7 = alloca i32, align 4
  %8 = getelementptr inbounds nuw i8, ptr %4, i64 25
  %9 = load i8, ptr %8, align 1, !range !6, !noundef !7
  %10 = trunc nuw i8 %9 to i1
  br i1 %10, label %24, label %11

11:                                               ; preds = %6
  %12 = tail call i32 @dissect_ndr_pointer(ptr noundef %0, i32 noundef %1, ptr noundef %2, ptr noundef %3, ptr noundef %4, ptr noundef %5, ptr noundef nonnull @dissect_fetchstatus, i32 noundef 1, ptr noundef nonnull @.str.385, i32 noundef -1)
  %13 = tail call i32 @dissect_ndr_pointer(ptr noundef %0, i32 noundef %12, ptr noundef %2, ptr noundef %3, ptr noundef %4, ptr noundef %5, ptr noundef nonnull @dissect_volsync, i32 noundef 1, ptr noundef nonnull @.str.387, i32 noundef -1)
  call void @llvm.lifetime.start.p0(i64 4, ptr nonnull %7) #4
  %14 = load i32, ptr @hf_error_st, align 4
  %15 = call i32 @dissect_ndr_uint32(ptr noundef %0, i32 noundef %13, ptr noundef %2, ptr noundef %3, ptr noundef %4, ptr noundef %5, i32 noundef %14, ptr noundef nonnull %7)
  %16 = load i32, ptr %7, align 4
  %17 = call ptr @val_to_str_ext(i32 noundef %16, ptr noundef nonnull @dce_error_vals_ext, ptr noundef nonnull @.str.346)
  %18 = load i32, ptr %7, align 4
  %.not = icmp eq i32 %18, 0
  %19 = getelementptr inbounds nuw i8, ptr %2, i64 8
  %20 = load ptr, ptr %19, align 8
  br i1 %.not, label %22, label %21

21:                                               ; preds = %11
  call void (ptr, i32, ptr, ...) @col_add_fstr(ptr noundef %20, i32 noundef 25, ptr noundef nonnull @.str.373, ptr noundef nonnull @.str.436, ptr noundef %17)
  br label %23

22:                                               ; preds = %11
  call void (ptr, i32, ptr, ...) @col_append_fstr(ptr noundef %20, i32 noundef 25, ptr noundef nonnull @.str.375, ptr noundef %17)
  br label %23

23:                                               ; preds = %22, %21
  call void @llvm.lifetime.end.p0(i64 4, ptr nonnull %7) #4
  br label %24

24:                                               ; preds = %6, %23
  %.0 = phi i32 [ %15, %23 ], [ %1, %6 ]
  ret i32 %.0
}